target datalayout = "e-m:e-p270:32:32-p271:32:32-p272:64:64-i64:64-i128:128-f80:128-n8:16:32:64-S128"
target triple = "x86_64-pc-linux-gnu"

%"struct.std::_Vector_base.14" = type { %"struct.std::_Vector_base<const Variable *, std::allocator<const Variable *>>::_Vector_impl" }
%"struct.std::_Vector_base<const Variable *, std::allocator<const Variable *>>::_Vector_impl" = type { %"struct.std::_Vector_base<const Variable *, std::allocator<const Variable *>>::_Vector_impl_data" }
%"struct.std::_Vector_base<const Variable *, std::allocator<const Variable *>>::_Vector_impl_data" = type { ptr, ptr, ptr }

; Function Attrs: mustprogress nounwind uwtable
define dso_local noundef zeroext i1 @_Z18is_variable_in_setRKSt6vectorIPK8VariableSaIS2_EES2_(ptr noundef nonnull align 8 dereferenceable(24) %0, ptr noundef %1) #4 {
  %3 = alloca i1, align 1
  %4 = alloca ptr, align 8
  %5 = alloca ptr, align 8
  %6 = alloca i64, align 8
  %7 = alloca i32, align 4
  store ptr %0, ptr %4, align 8, !tbaa !38
  store ptr %1, ptr %5, align 8, !tbaa !40
  call void @llvm.lifetime.start.p0(i64 8, ptr %6) #3
  store i64 0, ptr %6, align 8, !tbaa !42
  br label %8

8:                                                ; preds = %22, %2
  %9 = load i64, ptr %6, align 8, !tbaa !42
  %10 = load ptr, ptr %4, align 8, !tbaa !38
  %11 = call noundef i64 @_ZNKSt6vectorIPK8VariableSaIS2_EE4sizeEv(ptr noundef nonnull align 8 dereferenceable(24) %10) #3
  %12 = icmp ult i64 %9, %11
  br i1 %12, label %13, label %25

13:                                               ; preds = %8
  %14 = load ptr, ptr %4, align 8, !tbaa !38
  %15 = load i64, ptr %6, align 8, !tbaa !42
  %16 = call noundef nonnull align 8 dereferenceable(8) ptr @_ZNKSt6vectorIPK8VariableSaIS2_EEixEm(ptr noundef nonnull align 8 dereferenceable(24) %14, i64 noundef %15) #3
  %17 = load ptr, ptr %16, align 8, !tbaa !40
  %18 = load ptr, ptr %5, align 8, !tbaa !40
  %19 = icmp eq ptr %17, %18
  br i1 %19, label %20, label %21

20:                                               ; preds = %13
  store i1 true, ptr %3, align 1
  store i32 1, ptr %7, align 4
  br label %26

21:                                               ; preds = %13
  br label %22

22:                                               ; preds = %21
  %23 = load i64, ptr %6, align 8, !tbaa !42
  %24 = add i64 %23, 1
  store i64 %24, ptr %6, align 8, !tbaa !42
  br label %8, !llvm.loop !76

25:                                               ; preds = %8
  store i1 false, ptr %3, align 1
  store i32 1, ptr %7, align 4
  br label %26

26:                                               ; preds = %25, %20
  call void @llvm.lifetime.end.p0(i64 8, ptr %6) #3
  %27 = load i1, ptr %3, align 1
  ret i1 %27
}

; Function Attrs: mustprogress nounwind uwtable
define linkonce_odr dso_local noundef nonnull align 8 dereferenceable(8) ptr @_ZNKSt6vectorIPK8VariableSaIS2_EEixEm(ptr noundef nonnull align 8 dereferenceable(24) %0, i64 noundef %1) #4 comdat align 2 {
  %3 = alloca ptr, align 8
  %4 = alloca i64, align 8
  store ptr %0, ptr %3, align 8, !tbaa !38
  store i64 %1, ptr %4, align 8, !tbaa !42
  %5 = load ptr, ptr %3, align 8
  %6 = getelementptr inbounds nuw %"struct.std::_Vector_base.14", ptr %5, i32 0, i32 0
  %7 = getelementptr inbounds nuw %"struct.std::_Vector_base<const Variable *, std::allocator<const Variable *>>::_Vector_impl_data", ptr %6, i32 0, i32 0
  %8 = load ptr, ptr %7, align 8, !tbaa !48
  %9 = load i64, ptr %4, align 8, !tbaa !42
  %10 = getelementptr inbounds nuw ptr, ptr %8, i64 %9
  ret ptr %10
}

; Function Attrs: mustprogress nounwind uwtable
define linkonce_odr dso_local noundef i64 @_ZNKSt6vectorIPK8VariableSaIS2_EE4sizeEv(ptr noundef nonnull align 8 dereferenceable(24) %0) #4 comdat align 2 {
  %2 = alloca ptr, align 8
  store ptr %0, ptr %2, align 8, !tbaa !38
  %3 = load ptr, ptr %2, align 8
  %4 = getelementptr inbounds nuw %"struct.std::_Vector_base.14", ptr %3, i32 0, i32 0
  %5 = getelementptr inbounds nuw %"struct.std::_Vector_base<const Variable *, std::allocator<const Variable *>>::_Vector_impl_data", ptr %4, i32 0, i32 1
  %6 = load ptr, ptr %5, align 8, !tbaa !45
  %7 = getelementptr inbounds nuw %"struct.std::_Vector_base.14", ptr %3, i32 0, i32 0
  %8 = getelementptr inbounds nuw %"struct.std::_Vector_base<const Variable *, std::allocator<const Variable *>>::_Vector_impl_data", ptr %7, i32 0, i32 0
  %9 = load ptr, ptr %8, align 8, !tbaa !48
  %10 = ptrtoint ptr %6 to i64
  %11 = ptrtoint ptr %9 to i64
  %12 = sub i64 %10, %11
  %13 = sdiv exact i64 %12, 8
  ret i64 %13
}

; Function Attrs: mustprogress nounwind uwtable
define dso_local noundef zeroext i1 @_Z19equal_variable_setsRKSt6vectorIPK8VariableSaIS2_EES6_(ptr noundef nonnull align 8 dereferenceable(24) %0, ptr noundef nonnull align 8 dereferenceable(24) %1) #4 {
  %3 = alloca i1, align 1
  %4 = alloca ptr, align 8
  %5 = alloca ptr, align 8
  %6 = alloca i64, align 8
  %7 = alloca i32, align 4
  store ptr %0, ptr %4, align 8, !tbaa !38
  store ptr %1, ptr %5, align 8, !tbaa !38
  call void @llvm.lifetime.start.p0(i64 8, ptr %6) #3
  %8 = load ptr, ptr %4, align 8, !tbaa !38
  %9 = call noundef i64 @_ZNKSt6vectorIPK8VariableSaIS2_EE4sizeEv(ptr noundef nonnull align 8 dereferenceable(24) %8) #3
  %10 = load ptr, ptr %5, align 8, !tbaa !38
  %11 = call noundef i64 @_ZNKSt6vectorIPK8VariableSaIS2_EE4sizeEv(ptr noundef nonnull align 8 dereferenceable(24) %10) #3
  %12 = icmp eq i64 %9, %11
  br i1 %12, label %13, label %32

13:                                               ; preds = %2
  store i64 0, ptr %6, align 8, !tbaa !42
  br label %14

14:                                               ; preds = %28, %13
  %15 = load i64, ptr %6, align 8, !tbaa !42
  %16 = load ptr, ptr %4, align 8, !tbaa !38
  %17 = call noundef i64 @_ZNKSt6vectorIPK8VariableSaIS2_EE4sizeEv(ptr noundef nonnull align 8 dereferenceable(24) %16) #3
  %18 = icmp ult i64 %15, %17
  br i1 %18, label %19, label %31

19:                                               ; preds = %14
  %20 = load ptr, ptr %5, align 8, !tbaa !38
  %21 = load ptr, ptr %4, align 8, !tbaa !38
  %22 = load i64, ptr %6, align 8, !tbaa !42
  %23 = call noundef nonnull align 8 dereferenceable(8) ptr @_ZNKSt6vectorIPK8VariableSaIS2_EEixEm(ptr noundef nonnull align 8 dereferenceable(24) %21, i64 noundef %22) #3
  %24 = load ptr, ptr %23, align 8, !tbaa !40
  %25 = call noundef zeroext i1 @_Z18is_variable_in_setRKSt6vectorIPK8VariableSaIS2_EES2_(ptr noundef nonnull align 8 dereferenceable(24) %20, ptr noundef %24)
  br i1 %25, label %27, label %26

26:                                               ; preds = %19
  store i1 false, ptr %3, align 1
  store i32 1, ptr %7, align 4
  br label %33

27:                                               ; preds = %19
  br label %28

28:                                               ; preds = %27
  %29 = load i64, ptr %6, align 8, !tbaa !42
  %30 = add i64 %29, 1
  store i64 %30, ptr %6, align 8, !tbaa !42
  br label %14, !llvm.loop !83

31:                                               ; preds = %14
  store i1 true, ptr %3, align 1
  store i32 1, ptr %7, align 4
  br label %33

32:                                               ; preds = %2
  store i1 false, ptr %3, align 1
  store i32 1, ptr %7, align 4
  br label %33

33:                                               ; preds = %32, %31, %26
  call void @llvm.lifetime.end.p0(i64 8, ptr %6) #3
  %34 = load i1, ptr %3, align 1
  ret i1 %34
}