; Function Attrs: mustprogress nofree norecurse nosync nounwind willreturn memory(read, inaccessiblemem: none) uwtable
define dso_local noundef zeroext i1 @_Z19equal_variable_setsRKSt6vectorIPK8VariableSaIS2_EES6_(ptr noundef nonnull readonly align 8 captures(none) dereferenceable(24) %0, ptr noundef nonnull readonly align 8 captures(none) dereferenceable(24) %1) local_unnamed_addr #9 {
  %3 = getelementptr inbounds nuw i8, ptr %0, i64 8
  %4 = load ptr, ptr %3, align 8, !tbaa !33
  %5 = load ptr, ptr %0, align 8, !tbaa !36
  %6 = ptrtoint ptr %4 to i64
  %7 = ptrtoint ptr %5 to i64
  %8 = sub i64 %6, %7
  %9 = ashr exact i64 %8, 3
  %10 = getelementptr inbounds nuw i8, ptr %1, i64 8
  %11 = load ptr, ptr %10, align 8, !tbaa !33
  %12 = load ptr, ptr %1, align 8, !tbaa !36
  %13 = ptrtoint ptr %11 to i64
  %14 = ptrtoint ptr %12 to i64
  %15 = sub i64 %13, %14
  %16 = icmp eq i64 %8, %15
  br i1 %16, label %.preheader, label %_Z18is_variable_in_setRKSt6vectorIPK8VariableSaIS2_EES2_.exit.thread

.preheader:                                       ; preds = %2
  %.not = icmp eq ptr %4, %5
  br i1 %.not, label %_Z18is_variable_in_setRKSt6vectorIPK8VariableSaIS2_EES2_.exit.thread, label %.lr.ph

.lr.ph:                                           ; preds = %.preheader
  %.not.i = icmp eq ptr %11, %12
  br i1 %.not.i, label %_Z18is_variable_in_setRKSt6vectorIPK8VariableSaIS2_EES2_.exit.thread, label %.lr.ph.preheader.i.preheader

.lr.ph.preheader.i.preheader:                     ; preds = %.lr.ph
  %umax = tail call i64 @llvm.umax.i64(i64 %9, i64 1)
  br label %.lr.ph.preheader.i

.lr.ph.preheader.i:                               ; preds = %.lr.ph.preheader.i.preheader, %_Z18is_variable_in_setRKSt6vectorIPK8VariableSaIS2_EES2_.exit
  %.011 = phi i64 [ %24, %_Z18is_variable_in_setRKSt6vectorIPK8VariableSaIS2_EES2_.exit ], [ 0, %.lr.ph.preheader.i.preheader ]
  %17 = getelementptr inbounds nuw ptr, ptr %5, i64 %.011
  %18 = load ptr, ptr %17, align 8, !tbaa !37
  br label %.lr.ph.i

19:                                               ; preds = %.lr.ph.i
  %20 = add nuw i64 %.07.i, 1
  %exitcond.not.i = icmp eq i64 %20, %9
  br i1 %exitcond.not.i, label %_Z18is_variable_in_setRKSt6vectorIPK8VariableSaIS2_EES2_.exit.thread, label %.lr.ph.i, !llvm.loop !87

.lr.ph.i:                                         ; preds = %19, %.lr.ph.preheader.i
  %.07.i = phi i64 [ %20, %19 ], [ 0, %.lr.ph.preheader.i ]
  %21 = getelementptr inbounds nuw ptr, ptr %12, i64 %.07.i
  %22 = load ptr, ptr %21, align 8, !tbaa !37
  %23 = icmp eq ptr %22, %18
  br i1 %23, label %_Z18is_variable_in_setRKSt6vectorIPK8VariableSaIS2_EES2_.exit, label %19

_Z18is_variable_in_setRKSt6vectorIPK8VariableSaIS2_EES2_.exit: ; preds = %.lr.ph.i
  %24 = add nuw i64 %.011, 1
  %exitcond.not = icmp eq i64 %24, %umax
  br i1 %exitcond.not, label %_Z18is_variable_in_setRKSt6vectorIPK8VariableSaIS2_EES2_.exit.thread, label %.lr.ph.preheader.i, !llvm.loop !90

_Z18is_variable_in_setRKSt6vectorIPK8VariableSaIS2_EES2_.exit.thread: ; preds = %_Z18is_variable_in_setRKSt6vectorIPK8VariableSaIS2_EES2_.exit, %19, %.preheader, %.lr.ph, %2
  %.08 = phi i1 [ false, %2 ], [ true, %.preheader ], [ false, %.lr.ph ], [ false, %19 ], [ true, %_Z18is_variable_in_setRKSt6vectorIPK8VariableSaIS2_EES2_.exit ]
  ret i1 %.08
}